target datalayout = "e-m:e-p270:32:32-p271:32:32-p272:64:64-i64:64-i128:128-f80:128-n8:16:32:64-S128"
target triple = "x86_64-pc-linux-gnu"

%struct.timeval = type { i64, i64 }

; Function Attrs: nounwind uwtable
define hidden void @mbedtls_net_usleep(i64 noundef %0) #0 {
  %2 = alloca i64, align 8
  %3 = alloca %struct.timeval, align 8
  store i64 %0, ptr %2, align 8, !tbaa !29
  call void @llvm.lifetime.start.p0(i64 16, ptr %3) #7
  %4 = load i64, ptr %2, align 8, !tbaa !29
  %5 = udiv i64 %4, 1000000
  %6 = getelementptr inbounds nuw %struct.timeval, ptr %3, i32 0, i32 0
  store i64 %5, ptr %6, align 8, !tbaa !42
  %7 = load i64, ptr %2, align 8, !tbaa !29
  %8 = srem i64 %7, 1000000
  %9 = getelementptr inbounds nuw %struct.timeval, ptr %3, i32 0, i32 1
  store i64 %8, ptr %9, align 8, !tbaa !44
  %10 = call i32 @select(i32 noundef 0, ptr noundef null, ptr noundef null, ptr noundef null, ptr noundef %3)
  call void @llvm.lifetime.end.p0(i64 16, ptr %3) #7
  ret void
}