; Function Attrs: nounwind uwtable
define hidden void @mbedtls_net_usleep(i64 noundef %0) local_unnamed_addr #1 {
  %2 = alloca %struct.timeval, align 8
  call void @llvm.lifetime.start.p0(i64 16, ptr nonnull %2) #9
  %3 = udiv i64 %0, 1000000
  store i64 %3, ptr %2, align 8, !tbaa !29
  %4 = srem i64 %0, 1000000
  %5 = getelementptr inbounds nuw i8, ptr %2, i64 8
  store i64 %4, ptr %5, align 8, !tbaa !31
  %6 = call i32 @select(i32 noundef 0, ptr noundef null, ptr noundef null, ptr noundef null, ptr noundef nonnull %2) #9
  call void @llvm.lifetime.end.p0(i64 16, ptr nonnull %2) #9
  ret void
}